; Function Attrs: nounwind uwtable
define ptr @curl_multi_get_handles(ptr noundef %0) local_unnamed_addr #0 {
  %2 = load ptr, ptr @Curl_cmalloc, align 8, !tbaa !3
  %3 = getelementptr inbounds nuw i8, ptr %0, i64 4
  %4 = load i32, ptr %3, align 4, !tbaa !105
  %5 = add i32 %4, 1
  %6 = zext i32 %5 to i64
  %7 = shl nuw nsw i64 %6, 3
  %8 = tail call ptr %2(i64 noundef %7) #19
  %.not = icmp eq ptr %8, null
  br i1 %.not, label %24, label %9

9:                                                ; preds = %1
  %10 = getelementptr inbounds nuw i8, ptr %0, i64 48
  %11 = tail call ptr @Curl_llist_head(ptr noundef nonnull %10) #19
  %.not1517 = icmp eq ptr %11, null
  br i1 %.not1517, label %._crit_edge, label %.lr.ph

.lr.ph:                                           ; preds = %9, %20
  %.019 = phi i32 [ %.1, %20 ], [ 0, %9 ]
  %.01318 = phi ptr [ %21, %20 ], [ %11, %9 ]
  %12 = tail call ptr @Curl_node_elem(ptr noundef nonnull %.01318) #19
  %13 = getelementptr inbounds nuw i8, ptr %12, i64 5036
  %14 = load i32, ptr %13, align 4
  %15 = and i32 %14, 1048576
  %.not16 = icmp eq i32 %15, 0
  br i1 %.not16, label %16, label %20

16:                                               ; preds = %.lr.ph
  %17 = add i32 %.019, 1
  %18 = zext i32 %.019 to i64
  %19 = getelementptr inbounds nuw ptr, ptr %8, i64 %18
  store ptr %12, ptr %19, align 8, !tbaa !3
  br label %20

20:                                               ; preds = %16, %.lr.ph
  %.1 = phi i32 [ %.019, %.lr.ph ], [ %17, %16 ]
  %21 = tail call ptr @Curl_node_next(ptr noundef nonnull %.01318) #19
  %.not15 = icmp eq ptr %21, null
  br i1 %.not15, label %._crit_edge.loopexit, label %.lr.ph, !llvm.loop !235

._crit_edge.loopexit:                             ; preds = %20
  %22 = zext i32 %.1 to i64
  br label %._crit_edge

._crit_edge:                                      ; preds = %._crit_edge.loopexit, %9
  %.0.lcssa = phi i64 [ 0, %9 ], [ %22, %._crit_edge.loopexit ]
  %23 = getelementptr inbounds nuw ptr, ptr %8, i64 %.0.lcssa
  store ptr null, ptr %23, align 8, !tbaa !3
  br label %24

24:                                               ; preds = %._crit_edge, %1
  ret ptr %8
}